; Function Attrs: nounwind uwtable
define dso_local i32 @list_flush_max(ptr noundef %0, i32 noundef %1) #0 {
  %3 = getelementptr inbounds nuw i8, ptr %0, i64 40
  %4 = tail call i32 @pthread_rwlock_wrlock(ptr noundef nonnull %3) #9
  %.not = icmp eq i32 %4, 0
  br i1 %.not, label %7, label %5

5:                                                ; preds = %2
  %6 = tail call ptr @__errno_location() #10
  store i32 %4, ptr %6, align 4
  tail call void (ptr, ...) @fatal_abort(ptr noundef nonnull @.str.2, ptr noundef nonnull @__func__.list_flush_max) #11
  unreachable

7:                                                ; preds = %2
  %8 = getelementptr inbounds nuw i8, ptr %0, i64 8
  %9 = icmp slt i32 %1, 0
  %or.cond28.not = icmp eq i32 %1, 0
  br i1 %or.cond28.not, label %.critedge, label %.lr.ph

.lr.ph:                                           ; preds = %7
  %10 = getelementptr inbounds nuw i8, ptr %0, i64 16
  %11 = getelementptr inbounds nuw i8, ptr %0, i64 4
  %12 = getelementptr inbounds nuw i8, ptr %0, i64 24
  %13 = getelementptr inbounds nuw i8, ptr %0, i64 96
  %14 = getelementptr inbounds nuw i8, ptr %0, i64 32
  br label %15

15:                                               ; preds = %.lr.ph, %45
  %.030 = phi i32 [ 0, %.lr.ph ], [ %.1, %45 ]
  %.01829 = phi i32 [ 0, %.lr.ph ], [ %46, %45 ]
  %16 = load ptr, ptr %8, align 8
  %.not24 = icmp eq ptr %16, null
  br i1 %.not24, label %.critedge, label %18

.critedge:                                        ; preds = %15, %45, %7
  %.0.lcssa = phi i32 [ 0, %7 ], [ %.1, %45 ], [ %.030, %15 ]
  %17 = tail call i32 @pthread_rwlock_unlock(ptr noundef nonnull %3) #9
  %.not25 = icmp eq i32 %17, 0
  br i1 %.not25, label %50, label %48

18:                                               ; preds = %15
  %19 = load ptr, ptr %16, align 8
  %20 = getelementptr inbounds nuw i8, ptr %16, i64 8
  %21 = load ptr, ptr %20, align 8
  store ptr %21, ptr %8, align 8
  %.not28.i = icmp eq ptr %21, null
  br i1 %.not28.i, label %22, label %23

22:                                               ; preds = %18
  store ptr %8, ptr %10, align 8
  br label %23

23:                                               ; preds = %22, %18
  %24 = load i32, ptr %11, align 4
  %25 = add nsw i32 %24, -1
  store i32 %25, ptr %11, align 4
  %.030.i = load ptr, ptr %12, align 8
  %.not2931.i = icmp eq ptr %.030.i, null
  br i1 %.not2931.i, label %_list_node_destroy.exit, label %.lr.ph.i

.lr.ph.i:                                         ; preds = %23, %37
  %.032.i = phi ptr [ %.0.i, %37 ], [ %.030.i, %23 ]
  %26 = getelementptr inbounds nuw i8, ptr %.032.i, i64 16
  %27 = load ptr, ptr %26, align 8
  %28 = icmp eq ptr %27, %16
  br i1 %28, label %29, label %32

29:                                               ; preds = %.lr.ph.i
  %30 = load ptr, ptr %20, align 8
  store ptr %30, ptr %26, align 8
  %31 = getelementptr inbounds nuw i8, ptr %.032.i, i64 24
  store ptr %8, ptr %31, align 8
  br label %37

32:                                               ; preds = %.lr.ph.i
  %33 = getelementptr inbounds nuw i8, ptr %.032.i, i64 24
  %34 = load ptr, ptr %33, align 8
  %35 = icmp eq ptr %34, %20
  br i1 %35, label %36, label %37

36:                                               ; preds = %32
  store ptr %8, ptr %33, align 8
  br label %37

37:                                               ; preds = %36, %32, %29
  %38 = getelementptr inbounds nuw i8, ptr %.032.i, i64 32
  %.0.i = load ptr, ptr %38, align 8
  %.not29.i = icmp eq ptr %.0.i, null
  br i1 %.not29.i, label %_list_node_destroy.exit, label %.lr.ph.i, !llvm.loop !17

_list_node_destroy.exit:                          ; preds = %37, %23
  %39 = load ptr, ptr %13, align 8
  store ptr %39, ptr %20, align 8
  store ptr %16, ptr %13, align 8
  %.not26 = icmp eq ptr %19, null
  br i1 %.not26, label %45, label %40

40:                                               ; preds = %_list_node_destroy.exit
  %41 = load ptr, ptr %14, align 8
  %.not27 = icmp eq ptr %41, null
  br i1 %.not27, label %43, label %42

42:                                               ; preds = %40
  tail call void %41(ptr noundef nonnull %19) #9
  br label %43

43:                                               ; preds = %42, %40
  %44 = add nsw i32 %.030, 1
  br label %45

45:                                               ; preds = %_list_node_destroy.exit, %43
  %.1 = phi i32 [ %44, %43 ], [ %.030, %_list_node_destroy.exit ]
  %46 = add nuw nsw i32 %.01829, 1
  %47 = icmp slt i32 %46, %1
  %or.cond = select i1 %9, i1 true, i1 %47
  br i1 %or.cond, label %15, label %.critedge, !llvm.loop !24

48:                                               ; preds = %.critedge
  %49 = tail call ptr @__errno_location() #10
  store i32 %17, ptr %49, align 4
  tail call void (ptr, ...) @fatal_abort(ptr noundef nonnull @.str.3, ptr noundef nonnull @__func__.list_flush_max) #11
  unreachable

50:                                               ; preds = %.critedge
  ret i32 %.0.lcssa
}